target datalayout = "e-m:e-p270:32:32-p271:32:32-p272:64:64-i64:64-i128:128-f80:128-n8:16:32:64-S128"
target triple = "x86_64-unknown-linux-gnu"

%"class.std::__cxx11::basic_string" = type { %"struct.std::__cxx11::basic_string<char>::_Alloc_hider", i64, %union.anon }
%"struct.std::__cxx11::basic_string<char>::_Alloc_hider" = type { ptr }
%union.anon = type { i64, [8 x i8] }
%"class.proxygen::HTTPCodec" = type { ptr }
%"class.proxygen::HTTPParallelCodec" = type <{ %"class.proxygen::HTTPCodec", i8, [7 x i8], i64, i64, ptr, i64, i64, %"class.std::__cxx11::basic_string", i32, [4 x i8] }>

; Function Attrs: mustprogress uwtable
define noundef i64 @_ZN8proxygen10HTTP2Codec29generateHeaderCallbackWrapperEmNS_5http29FrameTypeEm(ptr noundef nonnull align 8 dereferenceable(1062) %this, i64 noundef %stream, i8 noundef zeroext %type, i64 noundef %length) #4 align 2 {
entry:
  %this.addr = alloca ptr, align 8
  %stream.addr = alloca i64, align 8
  %type.addr = alloca i8, align 1
  %length.addr = alloca i64, align 8
  store ptr %this, ptr %this.addr, align 8
  store i64 %stream, ptr %stream.addr, align 8
  store i8 %type, ptr %type.addr, align 1
  store i64 %length, ptr %length.addr, align 8
  %this1 = load ptr, ptr %this.addr, align 8
  %callback_ = getelementptr inbounds %"class.proxygen::HTTPParallelCodec", ptr %this1, i32 0, i32 5
  %0 = load ptr, ptr %callback_, align 8
  %tobool = icmp ne ptr %0, null
  br i1 %tobool, label %if.then, label %if.end

if.then:                                          ; preds = %entry
  %callback_2 = getelementptr inbounds %"class.proxygen::HTTPParallelCodec", ptr %this1, i32 0, i32 5
  %1 = load ptr, ptr %callback_2, align 8
  %2 = load i64, ptr %stream.addr, align 8
  %3 = load i8, ptr %type.addr, align 1
  %4 = load i64, ptr %length.addr, align 8
  %vtable = load ptr, ptr %1, align 8
  %vfn = getelementptr inbounds ptr, ptr %vtable, i64 23
  %5 = load ptr, ptr %vfn, align 8
  call void %5(ptr noundef nonnull align 8 dereferenceable(8) %1, i64 noundef %2, i8 noundef zeroext %3, i64 noundef %4, i16 noundef zeroext 0)
  br label %if.end

if.end:                                           ; preds = %if.then, %entry
  %6 = load i64, ptr %length.addr, align 8
  ret i64 %6
}