; Function Attrs: mustprogress uwtable
define noundef i64 @_ZN8proxygen10HTTP2Codec29generateHeaderCallbackWrapperEmNS_5http29FrameTypeEm(ptr nocapture noundef nonnull readonly align 8 dereferenceable(1062) %this, i64 noundef %stream, i8 noundef zeroext %type, i64 noundef returned %length) local_unnamed_addr #3 align 2 {
entry:
  %callback_ = getelementptr inbounds i8, ptr %this, i64 32
  %0 = load ptr, ptr %callback_, align 8
  %tobool.not = icmp eq ptr %0, null
  br i1 %tobool.not, label %if.end, label %if.then

if.then:                                          ; preds = %entry
  %vtable = load ptr, ptr %0, align 8
  %vfn = getelementptr inbounds i8, ptr %vtable, i64 184
  %1 = load ptr, ptr %vfn, align 8
  tail call void %1(ptr noundef nonnull align 8 dereferenceable(8) %0, i64 noundef %stream, i8 noundef zeroext %type, i64 noundef %length, i16 noundef zeroext 0)
  br label %if.end

if.end:                                           ; preds = %if.then, %entry
  ret i64 %length
}